target datalayout = "e-m:e-p270:32:32-p271:32:32-p272:64:64-i64:64-i128:128-f80:128-n8:16:32:64-S128"
target triple = "x86_64-unknown-linux-gnu"

%"class.Imath_3_2::Box" = type { %"class.Imath_3_2::Vec2", %"class.Imath_3_2::Vec2" }
%"class.Imath_3_2::Vec2" = type { i32, i32 }

; Function Attrs: mustprogress nounwind uwtable
define linkonce_odr hidden noundef nonnull align 4 dereferenceable(8) ptr @_ZN9Imath_3_24Vec2IiEaSERKS1_(ptr noundef nonnull align 4 dereferenceable(8) %this, ptr noundef nonnull align 4 dereferenceable(8) %v) #5 comdat align 2 {
entry:
  %this.addr = alloca ptr, align 8
  %v.addr = alloca ptr, align 8
  store ptr %this, ptr %this.addr, align 8
  store ptr %v, ptr %v.addr, align 8
  %this1 = load ptr, ptr %this.addr, align 8
  %0 = load ptr, ptr %v.addr, align 8
  %x = getelementptr inbounds %"class.Imath_3_2::Vec2", ptr %0, i32 0, i32 0
  %1 = load i32, ptr %x, align 4
  %x2 = getelementptr inbounds %"class.Imath_3_2::Vec2", ptr %this1, i32 0, i32 0
  store i32 %1, ptr %x2, align 4
  %2 = load ptr, ptr %v.addr, align 8
  %y = getelementptr inbounds %"class.Imath_3_2::Vec2", ptr %2, i32 0, i32 1
  %3 = load i32, ptr %y, align 4
  %y3 = getelementptr inbounds %"class.Imath_3_2::Vec2", ptr %this1, i32 0, i32 1
  store i32 %3, ptr %y3, align 4
  ret ptr %this1
}

; Function Attrs: mustprogress nounwind uwtable
define linkonce_odr hidden void @_ZN9Imath_3_24Vec2IiEC2Ev(ptr noundef nonnull align 4 dereferenceable(8) %this) unnamed_addr #5 comdat align 2 {
entry:
  %this.addr = alloca ptr, align 8
  store ptr %this, ptr %this.addr, align 8
  ret void
}

; Function Attrs: mustprogress nounwind uwtable
define linkonce_odr hidden void @_ZN9Imath_3_23BoxINS_4Vec2IiEEEC2ERKS2_S5_(ptr noundef nonnull align 4 dereferenceable(16) %this, ptr noundef nonnull align 4 dereferenceable(8) %minT, ptr noundef nonnull align 4 dereferenceable(8) %maxT) unnamed_addr #5 comdat align 2 {
entry:
  %this.addr = alloca ptr, align 8
  %minT.addr = alloca ptr, align 8
  %maxT.addr = alloca ptr, align 8
  store ptr %this, ptr %this.addr, align 8
  store ptr %minT, ptr %minT.addr, align 8
  store ptr %maxT, ptr %maxT.addr, align 8
  %this1 = load ptr, ptr %this.addr, align 8
  %min = getelementptr inbounds %"class.Imath_3_2::Box", ptr %this1, i32 0, i32 0
  call void @_ZN9Imath_3_24Vec2IiEC2Ev(ptr noundef nonnull align 4 dereferenceable(8) %min) #3
  %max = getelementptr inbounds %"class.Imath_3_2::Box", ptr %this1, i32 0, i32 1
  call void @_ZN9Imath_3_24Vec2IiEC2Ev(ptr noundef nonnull align 4 dereferenceable(8) %max) #3
  %0 = load ptr, ptr %minT.addr, align 8
  %min2 = getelementptr inbounds %"class.Imath_3_2::Box", ptr %this1, i32 0, i32 0
  %call = call noundef nonnull align 4 dereferenceable(8) ptr @_ZN9Imath_3_24Vec2IiEaSERKS1_(ptr noundef nonnull align 4 dereferenceable(8) %min2, ptr noundef nonnull align 4 dereferenceable(8) %0) #3
  %1 = load ptr, ptr %maxT.addr, align 8
  %max3 = getelementptr inbounds %"class.Imath_3_2::Box", ptr %this1, i32 0, i32 1
  %call4 = call noundef nonnull align 4 dereferenceable(8) ptr @_ZN9Imath_3_24Vec2IiEaSERKS1_(ptr noundef nonnull align 4 dereferenceable(8) %max3, ptr noundef nonnull align 4 dereferenceable(8) %1) #3
  ret void
}

; Function Attrs: mustprogress nounwind uwtable
define linkonce_odr hidden void @_ZN9Imath_3_24Vec2IiEC2Eii(ptr noundef nonnull align 4 dereferenceable(8) %this, i32 noundef %a, i32 noundef %b) unnamed_addr #5 comdat align 2 {
entry:
  %this.addr = alloca ptr, align 8
  %a.addr = alloca i32, align 4
  %b.addr = alloca i32, align 4
  store ptr %this, ptr %this.addr, align 8
  store i32 %a, ptr %a.addr, align 4
  store i32 %b, ptr %b.addr, align 4
  %this1 = load ptr, ptr %this.addr, align 8
  %x = getelementptr inbounds %"class.Imath_3_2::Vec2", ptr %this1, i32 0, i32 0
  %0 = load i32, ptr %a.addr, align 4
  store i32 %0, ptr %x, align 4
  %y = getelementptr inbounds %"class.Imath_3_2::Vec2", ptr %this1, i32 0, i32 1
  %1 = load i32, ptr %b.addr, align 4
  store i32 %1, ptr %y, align 4
  ret void
}

; Function Attrs: mustprogress uwtable
define void @_ZN7Imf_3_29DeepImageC2Ev(ptr noundef nonnull align 8 dereferenceable(104) %this) unnamed_addr #4 align 2 personality ptr @__gxx_personality_v0 {
entry:
  %this.addr = alloca ptr, align 8
  %ref.tmp = alloca %"class.Imath_3_2::Box", align 4
  %ref.tmp2 = alloca %"class.Imath_3_2::Vec2", align 4
  %ref.tmp3 = alloca %"class.Imath_3_2::Vec2", align 4
  %exn.slot = alloca ptr, align 8
  %ehselector.slot = alloca i32, align 4
  store ptr %this, ptr %this.addr, align 8
  %this1 = load ptr, ptr %this.addr, align 8
  call void @_ZN7Imf_3_25ImageC2Ev(ptr noundef nonnull align 8 dereferenceable(104) %this1)
  store ptr getelementptr inbounds ({ [10 x ptr] }, ptr @_ZTVN7Imf_3_29DeepImageE, i32 0, i32 0, i32 2), ptr %this1, align 8
  call void @_ZN9Imath_3_24Vec2IiEC2Eii(ptr noundef nonnull align 4 dereferenceable(8) %ref.tmp2, i32 noundef 0, i32 noundef 0) #3
  call void @_ZN9Imath_3_24Vec2IiEC2Eii(ptr noundef nonnull align 4 dereferenceable(8) %ref.tmp3, i32 noundef -1, i32 noundef -1) #3
  call void @_ZN9Imath_3_23BoxINS_4Vec2IiEEEC2ERKS2_S5_(ptr noundef nonnull align 4 dereferenceable(16) %ref.tmp, ptr noundef nonnull align 4 dereferenceable(8) %ref.tmp2, ptr noundef nonnull align 4 dereferenceable(8) %ref.tmp3) #3
  %vtable = load ptr, ptr %this1, align 8
  %vfn = getelementptr inbounds ptr, ptr %vtable, i64 2
  %0 = load ptr, ptr %vfn, align 8
  invoke void %0(ptr noundef nonnull align 8 dereferenceable(104) %this1, ptr noundef nonnull align 4 dereferenceable(16) %ref.tmp, i32 noundef 0, i32 noundef 0)
          to label %invoke.cont unwind label %lpad

invoke.cont:                                      ; preds = %entry
  ret void

lpad:                                             ; preds = %entry
  %1 = landingpad { ptr, i32 }
          cleanup
  %2 = extractvalue { ptr, i32 } %1, 0
  store ptr %2, ptr %exn.slot, align 8
  %3 = extractvalue { ptr, i32 } %1, 1
  store i32 %3, ptr %ehselector.slot, align 4
  call void @_ZN7Imf_3_25ImageD2Ev(ptr noundef nonnull align 8 dereferenceable(104) %this1) #3
  br label %eh.resume

eh.resume:                                        ; preds = %lpad
  %exn = load ptr, ptr %exn.slot, align 8
  %sel = load i32, ptr %ehselector.slot, align 4
  %lpad.val = insertvalue { ptr, i32 } poison, ptr %exn, 0
  %lpad.val4 = insertvalue { ptr, i32 } %lpad.val, i32 %sel, 1
  resume { ptr, i32 } %lpad.val4
}